; Function Attrs: nounwind uwtable
define internal void @dataSourceHandleTarget(ptr readnone captures(none) %0, ptr noundef readnone captures(address) %1, ptr readnone captures(none) %2) #0 {
  %4 = load ptr, ptr getelementptr inbounds nuw (i8, ptr @_glfw, i64 134056), align 8, !tbaa !343
  %.not = icmp eq ptr %4, %1
  br i1 %.not, label %6, label %5

5:                                                ; preds = %3
  tail call void (i32, ptr, ...) @_glfwInputError(i32 noundef 65544, ptr noundef nonnull @.str.74) #20
  br label %6

6:                                                ; preds = %5, %3
  ret void
}